target datalayout = "e-m:e-p270:32:32-p271:32:32-p272:64:64-i64:64-i128:128-f80:128-n8:16:32:64-S128"
target triple = "x86_64-pc-linux-gnu"

%struct.wtap = type { ptr, ptr, i8, i32, i32, ptr, ptr, ptr, i32, ptr, ptr, ptr, ptr, ptr, ptr, ptr, ptr, ptr, ptr, i32, i32, ptr, ptr, ptr, ptr }

@dbs_etherwatch_file_type_subtype = internal global i32 -1, align 4
@dbs_etherwatch_hdr_magic = internal constant [11 x i8] c"ETHERWATCH ", align 1

; Function Attrs: null_pointer_is_valid sspstrong uwtable
define internal zeroext i1 @dbs_etherwatch_check_file_type(ptr noundef %0, ptr noundef %1, ptr noundef %2) #0 {
  %4 = alloca i1, align 1
  %5 = alloca ptr, align 8
  %6 = alloca ptr, align 8
  %7 = alloca ptr, align 8
  %8 = alloca [240 x i8], align 16
  %9 = alloca i32, align 4
  %10 = alloca i32, align 4
  %11 = alloca i64, align 8
  %12 = alloca i32, align 4
  %13 = alloca i32, align 4
  %14 = alloca i32, align 4
  store ptr %0, ptr %5, align 8
  store ptr %1, ptr %6, align 8
  store ptr %2, ptr %7, align 8
  call void @llvm.lifetime.start.p0(i64 240, ptr %8) #11
  call void @llvm.lifetime.start.p0(i64 4, ptr %9) #11
  call void @llvm.lifetime.start.p0(i64 4, ptr %10) #11
  call void @llvm.lifetime.start.p0(i64 8, ptr %11) #11
  call void @llvm.lifetime.start.p0(i64 4, ptr %12) #11
  call void @llvm.lifetime.start.p0(i64 4, ptr %13) #11
  %15 = getelementptr [240 x i8], ptr %8, i64 0, i64 239
  store i8 0, ptr %15, align 1
  store i32 0, ptr %9, align 4
  br label %16

16:                                               ; preds = %72, %3
  %17 = load i32, ptr %9, align 4
  %18 = icmp slt i32 %17, 200
  br i1 %18, label %19, label %75

19:                                               ; preds = %16
  %20 = getelementptr inbounds [240 x i8], ptr %8, i64 0, i64 0
  %21 = load ptr, ptr %5, align 8
  %22 = getelementptr inbounds nuw %struct.wtap, ptr %21, i32 0, i32 0
  %23 = load ptr, ptr %22, align 8
  %24 = call ptr @file_gets(ptr noundef %20, i32 noundef 240, ptr noundef %23)
  %25 = icmp eq ptr %24, null
  br i1 %25, label %26, label %33

26:                                               ; preds = %19
  %27 = load ptr, ptr %5, align 8
  %28 = getelementptr inbounds nuw %struct.wtap, ptr %27, i32 0, i32 0
  %29 = load ptr, ptr %28, align 8
  %30 = load ptr, ptr %7, align 8
  %31 = call i32 @file_error(ptr noundef %29, ptr noundef %30)
  %32 = load ptr, ptr %6, align 8
  store i32 %31, ptr %32, align 4
  store i1 false, ptr %4, align 1
  store i32 1, ptr %14, align 4
  br label %77

33:                                               ; preds = %19
  %34 = getelementptr inbounds [240 x i8], ptr %8, i64 0, i64 0
  %35 = call i64 @strlen(ptr noundef %34) #12
  store i64 %35, ptr %11, align 8
  %36 = load i64, ptr %11, align 8
  %37 = icmp ult i64 %36, 11
  br i1 %37, label %38, label %39

38:                                               ; preds = %33
  br label %72

39:                                               ; preds = %33
  store i32 0, ptr %13, align 4
  store i32 0, ptr %12, align 4
  br label %40

40:                                               ; preds = %68, %39
  %41 = load i32, ptr %12, align 4
  %42 = zext i32 %41 to i64
  %43 = load i64, ptr %11, align 8
  %44 = icmp ult i64 %42, %43
  br i1 %44, label %45, label %71

45:                                               ; preds = %40
  %46 = load i32, ptr %12, align 4
  %47 = zext i32 %46 to i64
  %48 = getelementptr [240 x i8], ptr %8, i64 0, i64 %47
  %49 = load i8, ptr %48, align 1
  %50 = sext i8 %49 to i32
  store i32 %50, ptr %10, align 4
  %51 = load i32, ptr %10, align 4
  %52 = load i32, ptr %13, align 4
  %53 = zext i32 %52 to i64
  %54 = getelementptr [11 x i8], ptr @dbs_etherwatch_hdr_magic, i64 0, i64 %53
  %55 = load i8, ptr %54, align 1
  %56 = sext i8 %55 to i32
  %57 = icmp eq i32 %51, %56
  br i1 %57, label %58, label %66

58:                                               ; preds = %45
  %59 = load i32, ptr %13, align 4
  %60 = add i32 %59, 1
  store i32 %60, ptr %13, align 4
  %61 = load i32, ptr %13, align 4
  %62 = zext i32 %61 to i64
  %63 = icmp uge i64 %62, 11
  br i1 %63, label %64, label %65

64:                                               ; preds = %58
  store i1 true, ptr %4, align 1
  store i32 1, ptr %14, align 4
  br label %77

65:                                               ; preds = %58
  br label %67

66:                                               ; preds = %45
  store i32 0, ptr %13, align 4
  br label %67

67:                                               ; preds = %66, %65
  br label %68

68:                                               ; preds = %67
  %69 = load i32, ptr %12, align 4
  %70 = add i32 %69, 1
  store i32 %70, ptr %12, align 4
  br label %40, !llvm.loop !6

71:                                               ; preds = %40
  br label %72

72:                                               ; preds = %71, %38
  %73 = load i32, ptr %9, align 4
  %74 = add i32 %73, 1
  store i32 %74, ptr %9, align 4
  br label %16, !llvm.loop !8

75:                                               ; preds = %16
  %76 = load ptr, ptr %6, align 8
  store i32 0, ptr %76, align 4
  store i1 false, ptr %4, align 1
  store i32 1, ptr %14, align 4
  br label %77

77:                                               ; preds = %75, %64, %26
  call void @llvm.lifetime.end.p0(i64 4, ptr %13) #11
  call void @llvm.lifetime.end.p0(i64 4, ptr %12) #11
  call void @llvm.lifetime.end.p0(i64 8, ptr %11) #11
  call void @llvm.lifetime.end.p0(i64 4, ptr %10) #11
  call void @llvm.lifetime.end.p0(i64 4, ptr %9) #11
  call void @llvm.lifetime.end.p0(i64 240, ptr %8) #11
  %78 = load i1, ptr %4, align 1
  ret i1 %78
}

; Function Attrs: null_pointer_is_valid sspstrong uwtable
define hidden i32 @dbs_etherwatch_open(ptr noundef %0, ptr noundef %1, ptr noundef %2) #0 {
  %4 = alloca i32, align 4
  %5 = alloca ptr, align 8
  %6 = alloca ptr, align 8
  %7 = alloca ptr, align 8
  store ptr %0, ptr %5, align 8
  store ptr %1, ptr %6, align 8
  store ptr %2, ptr %7, align 8
  %8 = load ptr, ptr %5, align 8
  %9 = load ptr, ptr %6, align 8
  %10 = load ptr, ptr %7, align 8
  %11 = call zeroext i1 @dbs_etherwatch_check_file_type(ptr noundef %8, ptr noundef %9, ptr noundef %10)
  br i1 %11, label %22, label %12

12:                                               ; preds = %3
  %13 = load ptr, ptr %6, align 8
  %14 = load i32, ptr %13, align 4
  %15 = icmp ne i32 %14, 0
  br i1 %15, label %16, label %21

16:                                               ; preds = %12
  %17 = load ptr, ptr %6, align 8
  %18 = load i32, ptr %17, align 4
  %19 = icmp ne i32 %18, -12
  br i1 %19, label %20, label %21

20:                                               ; preds = %16
  store i32 -1, ptr %4, align 4
  br label %37

21:                                               ; preds = %16, %12
  store i32 0, ptr %4, align 4
  br label %37

22:                                               ; preds = %3
  %23 = load ptr, ptr %5, align 8
  %24 = getelementptr inbounds nuw %struct.wtap, ptr %23, i32 0, i32 19
  store i32 1, ptr %24, align 8
  %25 = load i32, ptr @dbs_etherwatch_file_type_subtype, align 4
  %26 = load ptr, ptr %5, align 8
  %27 = getelementptr inbounds nuw %struct.wtap, ptr %26, i32 0, i32 3
  store i32 %25, ptr %27, align 4
  %28 = load ptr, ptr %5, align 8
  %29 = getelementptr inbounds nuw %struct.wtap, ptr %28, i32 0, i32 4
  store i32 0, ptr %29, align 8
  %30 = load ptr, ptr %5, align 8
  %31 = getelementptr inbounds nuw %struct.wtap, ptr %30, i32 0, i32 15
  store ptr @dbs_etherwatch_read, ptr %31, align 8
  %32 = load ptr, ptr %5, align 8
  %33 = getelementptr inbounds nuw %struct.wtap, ptr %32, i32 0, i32 16
  store ptr @dbs_etherwatch_seek_read, ptr %33, align 8
  %34 = load ptr, ptr %5, align 8
  %35 = getelementptr inbounds nuw %struct.wtap, ptr %34, i32 0, i32 20
  store i32 2, ptr %35, align 4
  %36 = load ptr, ptr %5, align 8
  call void @wtap_add_generated_idb(ptr noundef %36)
  store i32 1, ptr %4, align 4
  br label %37

37:                                               ; preds = %22, %21, %20
  %38 = load i32, ptr %4, align 4
  ret i32 %38
}