; Function Attrs: null_pointer_is_valid sspstrong uwtable
define hidden range(i32 -1, 2) i32 @dbs_etherwatch_open(ptr noundef %0, ptr noundef writeonly captures(none) %1, ptr noundef %2) local_unnamed_addr #0 {
  %4 = alloca [240 x i8], align 16
  call void @llvm.lifetime.start.p0(i64 240, ptr nonnull %4) #10
  %5 = getelementptr inbounds nuw i8, ptr %4, i64 239
  store i8 0, ptr %5, align 1
  br label %6

6:                                                ; preds = %.loopexit.i, %3
  %.01824.i = phi i32 [ 0, %3 ], [ %30, %.loopexit.i ]
  %7 = load ptr, ptr %0, align 8
  %8 = call ptr @file_gets(ptr noundef nonnull %4, i32 noundef 240, ptr noundef %7)
  %9 = icmp eq ptr %8, null
  br i1 %9, label %10, label %13

10:                                               ; preds = %6
  %11 = load ptr, ptr %0, align 8
  %12 = call i32 @file_error(ptr noundef %11, ptr noundef %2)
  br label %.loopexit

13:                                               ; preds = %6
  %14 = call i64 @strlen(ptr noundef nonnull dereferenceable(1) %4) #11
  %15 = icmp ult i64 %14, 11
  br i1 %15, label %.loopexit.i, label %.preheader.i

.preheader.i:                                     ; preds = %13, %26
  %16 = phi i64 [ %28, %26 ], [ 0, %13 ]
  %.023.i = phi i32 [ %.1.i, %26 ], [ 0, %13 ]
  %.01622.i = phi i32 [ %27, %26 ], [ 0, %13 ]
  %17 = getelementptr [240 x i8], ptr %4, i64 0, i64 %16
  %18 = load i8, ptr %17, align 1
  %19 = zext nneg i32 %.023.i to i64
  %20 = getelementptr [11 x i8], ptr @dbs_etherwatch_hdr_magic, i64 0, i64 %19
  %21 = load i8, ptr %20, align 1
  %22 = icmp eq i8 %18, %21
  br i1 %22, label %23, label %26

23:                                               ; preds = %.preheader.i
  %24 = add nuw nsw i32 %.023.i, 1
  %25 = icmp ugt i32 %.023.i, 9
  br i1 %25, label %32, label %26

26:                                               ; preds = %23, %.preheader.i
  %.1.i = phi i32 [ %24, %23 ], [ 0, %.preheader.i ]
  %27 = add i32 %.01622.i, 1
  %28 = zext i32 %27 to i64
  %29 = icmp ugt i64 %14, %28
  br i1 %29, label %.preheader.i, label %.loopexit.i, !llvm.loop !6

.loopexit.i:                                      ; preds = %26, %13
  %30 = add nuw nsw i32 %.01824.i, 1
  %exitcond.not.i = icmp eq i32 %30, 200
  br i1 %exitcond.not.i, label %.loopexit, label %6, !llvm.loop !8

.loopexit:                                        ; preds = %.loopexit.i, %10
  %.sink.i = phi i32 [ %12, %10 ], [ 0, %.loopexit.i ]
  store i32 %.sink.i, ptr %1, align 4
  call void @llvm.lifetime.end.p0(i64 240, ptr nonnull %4) #10
  %switch.selectcmp.case1 = icmp ne i32 %.sink.i, 0
  %switch.selectcmp.case2 = icmp ne i32 %.sink.i, -12
  %switch.selectcmp.not = and i1 %switch.selectcmp.case1, %switch.selectcmp.case2
  %31 = sext i1 %switch.selectcmp.not to i32
  br label %40

32:                                               ; preds = %23
  call void @llvm.lifetime.end.p0(i64 240, ptr nonnull %4) #10
  %33 = getelementptr inbounds nuw i8, ptr %0, i64 144
  store i32 1, ptr %33, align 8
  %34 = load i32, ptr @dbs_etherwatch_file_type_subtype, align 4
  %35 = getelementptr inbounds nuw i8, ptr %0, i64 20
  store i32 %34, ptr %35, align 4
  %36 = getelementptr inbounds nuw i8, ptr %0, i64 24
  store i32 0, ptr %36, align 8
  %37 = getelementptr inbounds nuw i8, ptr %0, i64 112
  store ptr @dbs_etherwatch_read, ptr %37, align 8
  %38 = getelementptr inbounds nuw i8, ptr %0, i64 120
  store ptr @dbs_etherwatch_seek_read, ptr %38, align 8
  %39 = getelementptr inbounds nuw i8, ptr %0, i64 148
  store i32 2, ptr %39, align 4
  call void @wtap_add_generated_idb(ptr noundef %0)
  br label %40

40:                                               ; preds = %.loopexit, %32
  %.0 = phi i32 [ 1, %32 ], [ %31, %.loopexit ]
  ret i32 %.0
}